target datalayout = "e-m:e-p270:32:32-p271:32:32-p272:64:64-i64:64-i128:128-f80:128-n8:16:32:64-S128"
target triple = "x86_64-pc-linux-gnu"

%struct.persist_msg_t = type { ptr, ptr, i16 }
%struct.dbd_acct_coord_msg_t = type { ptr, ptr }

; Function Attrs: nounwind uwtable
define dso_local i32 @acct_storage_p_add_coord(ptr noundef %0, i32 noundef %1, ptr noundef %2, ptr noundef %3) #0 {
  %5 = alloca ptr, align 8
  %6 = alloca i32, align 4
  %7 = alloca ptr, align 8
  %8 = alloca ptr, align 8
  %9 = alloca %struct.persist_msg_t, align 8
  %10 = alloca %struct.dbd_acct_coord_msg_t, align 8
  %11 = alloca i32, align 4
  %12 = alloca i32, align 4
  store ptr %0, ptr %5, align 8
  store i32 %1, ptr %6, align 4
  store ptr %2, ptr %7, align 8
  store ptr %3, ptr %8, align 8
  call void @llvm.lifetime.start.p0(i64 24, ptr %9) #9
  call void @llvm.memset.p0.i64(ptr align 8 %9, i8 0, i64 24, i1 false)
  call void @llvm.lifetime.start.p0(i64 16, ptr %10) #9
  call void @llvm.lifetime.start.p0(i64 4, ptr %11) #9
  call void @llvm.lifetime.start.p0(i64 4, ptr %12) #9
  store i32 0, ptr %12, align 4
  call void @llvm.memset.p0.i64(ptr align 8 %10, i8 0, i64 16, i1 false)
  %13 = load ptr, ptr %7, align 8
  %14 = getelementptr inbounds nuw %struct.dbd_acct_coord_msg_t, ptr %10, i32 0, i32 0
  store ptr %13, ptr %14, align 8
  %15 = load ptr, ptr %8, align 8
  %16 = getelementptr inbounds nuw %struct.dbd_acct_coord_msg_t, ptr %10, i32 0, i32 1
  store ptr %15, ptr %16, align 8
  %17 = getelementptr inbounds nuw %struct.persist_msg_t, ptr %9, i32 0, i32 2
  store i16 1403, ptr %17, align 8
  %18 = load ptr, ptr %5, align 8
  %19 = getelementptr inbounds nuw %struct.persist_msg_t, ptr %9, i32 0, i32 0
  store ptr %18, ptr %19, align 8
  %20 = getelementptr inbounds nuw %struct.persist_msg_t, ptr %9, i32 0, i32 1
  store ptr %10, ptr %20, align 8
  %21 = call i32 @dbd_conn_send_recv_rc_msg(i16 noundef zeroext 11008, ptr noundef %9, ptr noundef %12)
  store i32 %21, ptr %11, align 4
  %22 = load i32, ptr %12, align 4
  %23 = icmp ne i32 %22, 0
  br i1 %23, label %24, label %26

24:                                               ; preds = %4
  %25 = load i32, ptr %12, align 4
  store i32 %25, ptr %11, align 4
  br label %26

26:                                               ; preds = %24, %4
  %27 = load i32, ptr %11, align 4
  call void @llvm.lifetime.end.p0(i64 4, ptr %12) #9
  call void @llvm.lifetime.end.p0(i64 4, ptr %11) #9
  call void @llvm.lifetime.end.p0(i64 16, ptr %10) #9
  call void @llvm.lifetime.end.p0(i64 24, ptr %9) #9
  ret i32 %27
}